target datalayout = "e-m:e-p270:32:32-p271:32:32-p272:64:64-i64:64-i128:128-f80:128-n8:16:32:64-S128"
target triple = "x86_64-pc-linux-gnu"

%struct.group_cache_rec = type { ptr, i32, ptr }

; Function Attrs: nounwind uwtable
define internal void @_cache_del_func(ptr noundef %0) #0 {
  %2 = alloca ptr, align 8
  %3 = alloca ptr, align 8
  store ptr %0, ptr %2, align 8
  call void @llvm.lifetime.start.p0(i64 8, ptr %3) #7
  %4 = load ptr, ptr %2, align 8
  store ptr %4, ptr %3, align 8
  %5 = load ptr, ptr %3, align 8
  %6 = getelementptr inbounds nuw %struct.group_cache_rec, ptr %5, i32 0, i32 0
  call void @slurm_xfree(ptr noundef %6)
  %7 = load ptr, ptr %3, align 8
  %8 = getelementptr inbounds nuw %struct.group_cache_rec, ptr %7, i32 0, i32 2
  call void @slurm_xfree(ptr noundef %8)
  call void @slurm_xfree(ptr noundef %3)
  call void @llvm.lifetime.end.p0(i64 8, ptr %3) #7
  ret void
}